target datalayout = "e-m:e-p270:32:32-p271:32:32-p272:64:64-i64:64-i128:128-f80:128-n8:16:32:64-S128"
target triple = "x86_64-unknown-linux-gnu"

%"class.sat::literal" = type { i32 }
%"class.sat::lookahead" = type { ptr, i32, %class.reslimit, %"struct.sat::lookahead::config", double, double, double, %class.svector.1, %class.svector.1, %class.svector.3, %class.vector.5, %class.svector.3, %class.svector.3, %class.vector.6, %class.svector.3, %class.small_object_allocator, %class.vector.7, %class.ptr_vector.8, %class.svector.3, i32, %class.svector.3, i32, %class.svector.3, i8, %class.svector.3, %class.vector.10, ptr, %class.svector.11, i32, i32, %class.svector.3, i32, i32, %class.vector.13, %class.svector.14, double, %class.svector.1, i32, i64, %class.svector.16, i32, %class.indexed_uint_set, i32, i32, %"struct.sat::lookahead::stats", %class.svector.18, %"struct.sat::lookahead::cube_state", i32, %class.svector.22, %class.tracked_uint_set, %"class.sat::literal", i32, i32, %"class.sat::literal", %class.vector.26, %"class.sat::literal", %class.svector.27 }
%class.reslimit = type { %"struct.std::atomic", i8, i64, i64, %class.svector, %class.ptr_vector }
%"struct.std::atomic" = type { %"struct.std::__atomic_base" }
%"struct.std::__atomic_base" = type { i32 }
%class.svector = type { %class.vector }
%class.vector = type { ptr }
%class.ptr_vector = type { %class.vector.0 }
%class.vector.0 = type { ptr }
%"struct.sat::lookahead::config" = type { double, double, double, i32, i32, i8, i32, double, i32, i32, i32, i32, i32, double, double, double, double, double }
%class.vector.5 = type { ptr }
%class.vector.6 = type { ptr }
%class.small_object_allocator = type { [32 x ptr], [32 x ptr], i64 }
%class.vector.7 = type { ptr }
%class.ptr_vector.8 = type { %class.vector.9 }
%class.vector.9 = type { ptr }
%class.vector.10 = type { ptr }
%class.svector.11 = type { %class.vector.12 }
%class.vector.12 = type { ptr }
%class.svector.3 = type { %class.vector.4 }
%class.vector.4 = type { ptr }
%class.vector.13 = type { ptr }
%class.svector.14 = type { %class.vector.15 }
%class.vector.15 = type { ptr }
%class.svector.1 = type { %class.vector.2 }
%class.vector.2 = type { ptr }
%class.svector.16 = type { %class.vector.17 }
%class.vector.17 = type { ptr }
%class.indexed_uint_set = type { i32, %class.svector.3, %class.svector.3 }
%"struct.sat::lookahead::stats" = type { i32, i32, i32, i32, i32, i32, i32, i32 }
%class.svector.18 = type { %class.vector.19 }
%class.vector.19 = type { ptr }
%"struct.sat::lookahead::cube_state" = type <{ i8, [7 x i8], %class.svector.20, %class.svector.1, double, double, i32, i32, i32, [4 x i8] }>
%class.svector.20 = type { %class.vector.21 }
%class.vector.21 = type { ptr }
%class.svector.22 = type { %class.vector.23 }
%class.vector.23 = type { ptr }
%class.tracked_uint_set = type { %class.svector.24, %class.svector.3 }
%class.svector.24 = type { %class.vector.25 }
%class.vector.25 = type { ptr }
%class.vector.26 = type { ptr }
%class.svector.27 = type { %class.vector.28 }
%class.vector.28 = type { ptr }
%"class.sat::lookahead::scoped_assumptions" = type { ptr, %class.svector.1 }

; Function Attrs: mustprogress nounwind uwtable
define linkonce_odr hidden void @_ZNSt12_Destroy_auxILb1EE9__destroyIPN3sat7literalEEEvT_S5_(ptr noundef %0, ptr noundef %1) #4 comdat align 2 {
entry:
  %.addr = alloca ptr, align 8
  %.addr1 = alloca ptr, align 8
  store ptr %0, ptr %.addr, align 8
  store ptr %1, ptr %.addr1, align 8
  ret void
}

; Function Attrs: noreturn nounwind uwtable
define linkonce_odr hidden void @__clang_call_terminate(ptr noundef %0) #6 comdat {
  %2 = call ptr @__cxa_begin_catch(ptr %0) #3
  call void @_ZSt9terminatev() #15
  unreachable
}

; Function Attrs: mustprogress uwtable
define linkonce_odr hidden void @_ZSt8_DestroyIPN3sat7literalEEvT_S3_(ptr noundef %__first, ptr noundef %__last) #5 comdat {
entry:
  %__first.addr = alloca ptr, align 8
  %__last.addr = alloca ptr, align 8
  store ptr %__first, ptr %__first.addr, align 8
  store ptr %__last, ptr %__last.addr, align 8
  %0 = load ptr, ptr %__first.addr, align 8
  %1 = load ptr, ptr %__last.addr, align 8
  call void @_ZNSt12_Destroy_auxILb1EE9__destroyIPN3sat7literalEEEvT_S5_(ptr noundef %0, ptr noundef %1)
  ret void
}

; Function Attrs: mustprogress nounwind uwtable
define linkonce_odr hidden void @_ZSt10_ConstructIN3sat7literalEJRKS1_EEvPT_DpOT0_(ptr noundef %__p, ptr noundef nonnull align 4 dereferenceable(4) %__args) #4 comdat {
entry:
  %__p.addr = alloca ptr, align 8
  %__args.addr = alloca ptr, align 8
  store ptr %__p, ptr %__p.addr, align 8
  store ptr %__args, ptr %__args.addr, align 8
  %0 = load ptr, ptr %__p.addr, align 8
  %1 = load ptr, ptr %__args.addr, align 8
  call void @llvm.memcpy.p0.p0.i64(ptr align 4 %0, ptr align 4 %1, i64 4, i1 false)
  ret void
}

; Function Attrs: mustprogress uwtable
define linkonce_odr hidden noundef ptr @_ZSt16__do_uninit_copyIPKN3sat7literalEPS1_ET0_T_S6_S5_(ptr noundef %__first, ptr noundef %__last, ptr noundef %__result) #5 comdat personality ptr @__gxx_personality_v0 {
entry:
  %__first.addr = alloca ptr, align 8
  %__last.addr = alloca ptr, align 8
  %__result.addr = alloca ptr, align 8
  %__cur = alloca ptr, align 8
  %exn.slot = alloca ptr, align 8
  %ehselector.slot = alloca i32, align 4
  store ptr %__first, ptr %__first.addr, align 8
  store ptr %__last, ptr %__last.addr, align 8
  store ptr %__result, ptr %__result.addr, align 8
  %0 = load ptr, ptr %__result.addr, align 8
  store ptr %0, ptr %__cur, align 8
  br label %for.cond

for.cond:                                         ; preds = %for.inc, %entry
  %1 = load ptr, ptr %__first.addr, align 8
  %2 = load ptr, ptr %__last.addr, align 8
  %cmp = icmp ne ptr %1, %2
  br i1 %cmp, label %for.body, label %for.end

for.body:                                         ; preds = %for.cond
  %3 = load ptr, ptr %__cur, align 8
  %4 = load ptr, ptr %__first.addr, align 8
  invoke void @_ZSt10_ConstructIN3sat7literalEJRKS1_EEvPT_DpOT0_(ptr noundef %3, ptr noundef nonnull align 4 dereferenceable(4) %4)
          to label %invoke.cont unwind label %lpad

invoke.cont:                                      ; preds = %for.body
  br label %for.inc

for.inc:                                          ; preds = %invoke.cont
  %5 = load ptr, ptr %__first.addr, align 8
  %incdec.ptr = getelementptr inbounds %"class.sat::literal", ptr %5, i32 1
  store ptr %incdec.ptr, ptr %__first.addr, align 8
  %6 = load ptr, ptr %__cur, align 8
  %incdec.ptr1 = getelementptr inbounds %"class.sat::literal", ptr %6, i32 1
  store ptr %incdec.ptr1, ptr %__cur, align 8
  br label %for.cond, !llvm.loop !93

lpad:                                             ; preds = %for.body
  %7 = landingpad { ptr, i32 }
          catch ptr null
  %8 = extractvalue { ptr, i32 } %7, 0
  store ptr %8, ptr %exn.slot, align 8
  %9 = extractvalue { ptr, i32 } %7, 1
  store i32 %9, ptr %ehselector.slot, align 4
  br label %catch

catch:                                            ; preds = %lpad
  %exn = load ptr, ptr %exn.slot, align 8
  %10 = call ptr @__cxa_begin_catch(ptr %exn) #3
  %11 = load ptr, ptr %__result.addr, align 8
  %12 = load ptr, ptr %__cur, align 8
  invoke void @_ZSt8_DestroyIPN3sat7literalEEvT_S3_(ptr noundef %11, ptr noundef %12)
          to label %invoke.cont3 unwind label %lpad2

invoke.cont3:                                     ; preds = %catch
  invoke void @__cxa_rethrow() #16
          to label %unreachable unwind label %lpad2

for.end:                                          ; preds = %for.cond
  %13 = load ptr, ptr %__cur, align 8
  ret ptr %13

lpad2:                                            ; preds = %invoke.cont3, %catch
  %14 = landingpad { ptr, i32 }
          cleanup
  %15 = extractvalue { ptr, i32 } %14, 0
  store ptr %15, ptr %exn.slot, align 8
  %16 = extractvalue { ptr, i32 } %14, 1
  store i32 %16, ptr %ehselector.slot, align 4
  invoke void @__cxa_end_catch()
          to label %invoke.cont4 unwind label %terminate.lpad

invoke.cont4:                                     ; preds = %lpad2
  br label %eh.resume

try.cont:                                         ; No predecessors!
  call void @llvm.trap()
  unreachable

eh.resume:                                        ; preds = %invoke.cont4
  %exn5 = load ptr, ptr %exn.slot, align 8
  %sel = load i32, ptr %ehselector.slot, align 4
  %lpad.val = insertvalue { ptr, i32 } poison, ptr %exn5, 0
  %lpad.val6 = insertvalue { ptr, i32 } %lpad.val, i32 %sel, 1
  resume { ptr, i32 } %lpad.val6

terminate.lpad:                                   ; preds = %lpad2
  %17 = landingpad { ptr, i32 }
          catch ptr null
  %18 = extractvalue { ptr, i32 } %17, 0
  call void @__clang_call_terminate(ptr %18) #15
  unreachable

unreachable:                                      ; preds = %invoke.cont3
  unreachable
}

; Function Attrs: mustprogress uwtable
define linkonce_odr hidden noundef ptr @_ZNSt20__uninitialized_copyILb0EE13__uninit_copyIPKN3sat7literalEPS3_EET0_T_S8_S7_(ptr noundef %__first, ptr noundef %__last, ptr noundef %__result) #5 comdat align 2 {
entry:
  %__first.addr = alloca ptr, align 8
  %__last.addr = alloca ptr, align 8
  %__result.addr = alloca ptr, align 8
  store ptr %__first, ptr %__first.addr, align 8
  store ptr %__last, ptr %__last.addr, align 8
  store ptr %__result, ptr %__result.addr, align 8
  %0 = load ptr, ptr %__first.addr, align 8
  %1 = load ptr, ptr %__last.addr, align 8
  %2 = load ptr, ptr %__result.addr, align 8
  %call = call noundef ptr @_ZSt16__do_uninit_copyIPKN3sat7literalEPS1_ET0_T_S6_S5_(ptr noundef %0, ptr noundef %1, ptr noundef %2)
  ret ptr %call
}

; Function Attrs: mustprogress uwtable
define linkonce_odr hidden noundef ptr @_ZSt18uninitialized_copyIPKN3sat7literalEPS1_ET0_T_S6_S5_(ptr noundef %__first, ptr noundef %__last, ptr noundef %__result) #5 comdat {
entry:
  %__first.addr = alloca ptr, align 8
  %__last.addr = alloca ptr, align 8
  %__result.addr = alloca ptr, align 8
  %__can_memmove = alloca i8, align 1
  %__assignable = alloca i8, align 1
  store ptr %__first, ptr %__first.addr, align 8
  store ptr %__last, ptr %__last.addr, align 8
  store ptr %__result, ptr %__result.addr, align 8
  store i8 0, ptr %__can_memmove, align 1
  store i8 0, ptr %__assignable, align 1
  %0 = load ptr, ptr %__first.addr, align 8
  %1 = load ptr, ptr %__last.addr, align 8
  %2 = load ptr, ptr %__result.addr, align 8
  %call = call noundef ptr @_ZNSt20__uninitialized_copyILb0EE13__uninit_copyIPKN3sat7literalEPS3_EET0_T_S8_S7_(ptr noundef %0, ptr noundef %1, ptr noundef %2)
  ret ptr %call
}

; Function Attrs: mustprogress nounwind uwtable
define linkonce_odr hidden noundef ptr @_ZN6vectorIN3sat7literalELb0EjE5beginEv(ptr noundef nonnull align 8 dereferenceable(8) %this) #4 comdat align 2 {
entry:
  %this.addr = alloca ptr, align 8
  store ptr %this, ptr %this.addr, align 8
  %this1 = load ptr, ptr %this.addr, align 8
  %m_data = getelementptr inbounds %class.vector.2, ptr %this1, i32 0, i32 0
  %0 = load ptr, ptr %m_data, align 8
  ret ptr %0
}

; Function Attrs: mustprogress nounwind uwtable
define linkonce_odr hidden noundef i32 @_ZNK6vectorIN3sat7literalELb0EjE8capacityEv(ptr noundef nonnull align 8 dereferenceable(8) %this) #4 comdat align 2 {
entry:
  %retval = alloca i32, align 4
  %this.addr = alloca ptr, align 8
  store ptr %this, ptr %this.addr, align 8
  %this1 = load ptr, ptr %this.addr, align 8
  %m_data = getelementptr inbounds %class.vector.2, ptr %this1, i32 0, i32 0
  %0 = load ptr, ptr %m_data, align 8
  %cmp = icmp eq ptr %0, null
  br i1 %cmp, label %if.then, label %if.end

if.then:                                          ; preds = %entry
  store i32 0, ptr %retval, align 4
  br label %return

if.end:                                           ; preds = %entry
  %m_data2 = getelementptr inbounds %class.vector.2, ptr %this1, i32 0, i32 0
  %1 = load ptr, ptr %m_data2, align 8
  %arrayidx = getelementptr inbounds i32, ptr %1, i64 -2
  %2 = load i32, ptr %arrayidx, align 4
  store i32 %2, ptr %retval, align 4
  br label %return

return:                                           ; preds = %if.end, %if.then
  %3 = load i32, ptr %retval, align 4
  ret i32 %3
}

; Function Attrs: mustprogress uwtable
define linkonce_odr hidden void @_ZN6vectorIN3sat7literalELb0EjE9copy_coreERKS2_(ptr noundef nonnull align 8 dereferenceable(8) %this, ptr noundef nonnull align 8 dereferenceable(8) %source) #5 comdat align 2 {
entry:
  %this.addr = alloca ptr, align 8
  %source.addr = alloca ptr, align 8
  %size = alloca i32, align 4
  %capacity = alloca i32, align 4
  %mem = alloca ptr, align 8
  store ptr %this, ptr %this.addr, align 8
  store ptr %source, ptr %source.addr, align 8
  %this1 = load ptr, ptr %this.addr, align 8
  %0 = load ptr, ptr %source.addr, align 8
  %call = call noundef i32 @_ZNK6vectorIN3sat7literalELb0EjE4sizeEv(ptr noundef nonnull align 8 dereferenceable(8) %0)
  store i32 %call, ptr %size, align 4
  %1 = load ptr, ptr %source.addr, align 8
  %call2 = call noundef i32 @_ZNK6vectorIN3sat7literalELb0EjE8capacityEv(ptr noundef nonnull align 8 dereferenceable(8) %1)
  store i32 %call2, ptr %capacity, align 4
  %2 = load i32, ptr %capacity, align 4
  %conv = zext i32 %2 to i64
  %mul = mul i64 4, %conv
  %add = add i64 %mul, 8
  %call3 = call noalias noundef ptr @_ZN6memory8allocateEm(i64 noundef %add)
  store ptr %call3, ptr %mem, align 8
  %3 = load i32, ptr %capacity, align 4
  %4 = load ptr, ptr %mem, align 8
  store i32 %3, ptr %4, align 4
  %5 = load ptr, ptr %mem, align 8
  %incdec.ptr = getelementptr inbounds i32, ptr %5, i32 1
  store ptr %incdec.ptr, ptr %mem, align 8
  %6 = load i32, ptr %size, align 4
  %7 = load ptr, ptr %mem, align 8
  store i32 %6, ptr %7, align 4
  %8 = load ptr, ptr %mem, align 8
  %incdec.ptr4 = getelementptr inbounds i32, ptr %8, i32 1
  store ptr %incdec.ptr4, ptr %mem, align 8
  %9 = load ptr, ptr %mem, align 8
  %m_data = getelementptr inbounds %class.vector.2, ptr %this1, i32 0, i32 0
  store ptr %9, ptr %m_data, align 8
  %10 = load ptr, ptr %source.addr, align 8
  %call5 = call noundef ptr @_ZNK6vectorIN3sat7literalELb0EjE5beginEv(ptr noundef nonnull align 8 dereferenceable(8) %10)
  %11 = load ptr, ptr %source.addr, align 8
  %call6 = call noundef ptr @_ZNK6vectorIN3sat7literalELb0EjE3endEv(ptr noundef nonnull align 8 dereferenceable(8) %11)
  %call7 = call noundef ptr @_ZN6vectorIN3sat7literalELb0EjE5beginEv(ptr noundef nonnull align 8 dereferenceable(8) %this1)
  %call8 = call noundef ptr @_ZSt18uninitialized_copyIPKN3sat7literalEPS1_ET0_T_S6_S5_(ptr noundef %call5, ptr noundef %call6, ptr noundef %call7)
  ret void
}

; Function Attrs: mustprogress nounwind uwtable
define linkonce_odr hidden noundef i32 @_ZNK6vectorIN3sat7literalELb0EjE4sizeEv(ptr noundef nonnull align 8 dereferenceable(8) %this) #4 comdat align 2 {
entry:
  %retval = alloca i32, align 4
  %this.addr = alloca ptr, align 8
  store ptr %this, ptr %this.addr, align 8
  %this1 = load ptr, ptr %this.addr, align 8
  %m_data = getelementptr inbounds %class.vector.2, ptr %this1, i32 0, i32 0
  %0 = load ptr, ptr %m_data, align 8
  %cmp = icmp eq ptr %0, null
  br i1 %cmp, label %if.then, label %if.end

if.then:                                          ; preds = %entry
  store i32 0, ptr %retval, align 4
  br label %return

if.end:                                           ; preds = %entry
  %m_data2 = getelementptr inbounds %class.vector.2, ptr %this1, i32 0, i32 0
  %1 = load ptr, ptr %m_data2, align 8
  %arrayidx = getelementptr inbounds i32, ptr %1, i64 -1
  %2 = load i32, ptr %arrayidx, align 4
  store i32 %2, ptr %retval, align 4
  br label %return

return:                                           ; preds = %if.end, %if.then
  %3 = load i32, ptr %retval, align 4
  ret i32 %3
}

; Function Attrs: mustprogress uwtable
define linkonce_odr hidden void @_ZN6vectorIN3sat7literalELb0EjEC2ERKS2_(ptr noundef nonnull align 8 dereferenceable(8) %this, ptr noundef nonnull align 8 dereferenceable(8) %source) unnamed_addr #5 comdat align 2 {
entry:
  %this.addr = alloca ptr, align 8
  %source.addr = alloca ptr, align 8
  store ptr %this, ptr %this.addr, align 8
  store ptr %source, ptr %source.addr, align 8
  %this1 = load ptr, ptr %this.addr, align 8
  %m_data = getelementptr inbounds %class.vector.2, ptr %this1, i32 0, i32 0
  store ptr null, ptr %m_data, align 8
  %0 = load ptr, ptr %source.addr, align 8
  %m_data2 = getelementptr inbounds %class.vector.2, ptr %0, i32 0, i32 0
  %1 = load ptr, ptr %m_data2, align 8
  %tobool = icmp ne ptr %1, null
  br i1 %tobool, label %if.then, label %if.end

if.then:                                          ; preds = %entry
  %2 = load ptr, ptr %source.addr, align 8
  call void @_ZN6vectorIN3sat7literalELb0EjE9copy_coreERKS2_(ptr noundef nonnull align 8 dereferenceable(8) %this1, ptr noundef nonnull align 8 dereferenceable(8) %2)
  br label %if.end

if.end:                                           ; preds = %if.then, %entry
  ret void
}

; Function Attrs: mustprogress nounwind uwtable
define linkonce_odr hidden noundef ptr @_ZNK6vectorIN3sat7literalELb0EjE3endEv(ptr noundef nonnull align 8 dereferenceable(8) %this) #4 comdat align 2 {
entry:
  %this.addr = alloca ptr, align 8
  store ptr %this, ptr %this.addr, align 8
  %this1 = load ptr, ptr %this.addr, align 8
  %m_data = getelementptr inbounds %class.vector.2, ptr %this1, i32 0, i32 0
  %0 = load ptr, ptr %m_data, align 8
  %call = call noundef i32 @_ZNK6vectorIN3sat7literalELb0EjE4sizeEv(ptr noundef nonnull align 8 dereferenceable(8) %this1)
  %idx.ext = zext i32 %call to i64
  %add.ptr = getelementptr inbounds %"class.sat::literal", ptr %0, i64 %idx.ext
  ret ptr %add.ptr
}

; Function Attrs: mustprogress nounwind uwtable
define linkonce_odr hidden noundef ptr @_ZNK6vectorIN3sat7literalELb0EjE5beginEv(ptr noundef nonnull align 8 dereferenceable(8) %this) #4 comdat align 2 {
entry:
  %this.addr = alloca ptr, align 8
  store ptr %this, ptr %this.addr, align 8
  %this1 = load ptr, ptr %this.addr, align 8
  %m_data = getelementptr inbounds %class.vector.2, ptr %this1, i32 0, i32 0
  %0 = load ptr, ptr %m_data, align 8
  ret ptr %0
}

; Function Attrs: mustprogress uwtable
define linkonce_odr hidden void @_ZN7svectorIN3sat7literalEjEC2ERKS2_(ptr noundef nonnull align 8 dereferenceable(8) %this, ptr noundef nonnull align 8 dereferenceable(8) %0) unnamed_addr #5 comdat align 2 {
entry:
  %this.addr = alloca ptr, align 8
  %.addr = alloca ptr, align 8
  store ptr %this, ptr %this.addr, align 8
  store ptr %0, ptr %.addr, align 8
  %this1 = load ptr, ptr %this.addr, align 8
  %1 = load ptr, ptr %.addr, align 8
  call void @_ZN6vectorIN3sat7literalELb0EjEC2ERKS2_(ptr noundef nonnull align 8 dereferenceable(8) %this1, ptr noundef nonnull align 8 dereferenceable(8) %1)
  ret void
}

; Function Attrs: mustprogress uwtable
define hidden void @_ZN3sat9lookahead18scoped_assumptionsC2ERS0_RK7svectorINS_7literalEjE(ptr noundef nonnull align 8 dereferenceable(16) %this, ptr noundef nonnull align 8 dereferenceable(1160) %p, ptr noundef nonnull align 8 dereferenceable(8) %lits) unnamed_addr #5 align 2 personality ptr @__gxx_personality_v0 {
entry:
  %this.addr = alloca ptr, align 8
  %p.addr = alloca ptr, align 8
  %lits.addr = alloca ptr, align 8
  %__range1 = alloca ptr, align 8
  %__begin1 = alloca ptr, align 8
  %exn.slot = alloca ptr, align 8
  %ehselector.slot = alloca i32, align 4
  %__end1 = alloca ptr, align 8
  %l = alloca %"class.sat::literal", align 4
  %agg.tmp = alloca %"class.sat::literal", align 4
  store ptr %this, ptr %this.addr, align 8
  store ptr %p, ptr %p.addr, align 8
  store ptr %lits, ptr %lits.addr, align 8
  %this1 = load ptr, ptr %this.addr, align 8
  %p2 = getelementptr inbounds %"class.sat::lookahead::scoped_assumptions", ptr %this1, i32 0, i32 0
  %0 = load ptr, ptr %p.addr, align 8
  store ptr %0, ptr %p2, align 8
  %lits3 = getelementptr inbounds %"class.sat::lookahead::scoped_assumptions", ptr %this1, i32 0, i32 1
  %1 = load ptr, ptr %lits.addr, align 8
  call void @_ZN7svectorIN3sat7literalEjEC2ERKS2_(ptr noundef nonnull align 8 dereferenceable(8) %lits3, ptr noundef nonnull align 8 dereferenceable(8) %1)
  %2 = load ptr, ptr %lits.addr, align 8
  store ptr %2, ptr %__range1, align 8
  %3 = load ptr, ptr %__range1, align 8
  %call = invoke noundef ptr @_ZNK6vectorIN3sat7literalELb0EjE5beginEv(ptr noundef nonnull align 8 dereferenceable(8) %3)
          to label %invoke.cont unwind label %lpad

invoke.cont:                                      ; preds = %entry
  store ptr %call, ptr %__begin1, align 8
  %4 = load ptr, ptr %__range1, align 8
  %call5 = invoke noundef ptr @_ZNK6vectorIN3sat7literalELb0EjE3endEv(ptr noundef nonnull align 8 dereferenceable(8) %4)
          to label %invoke.cont4 unwind label %lpad

invoke.cont4:                                     ; preds = %invoke.cont
  store ptr %call5, ptr %__end1, align 8
  br label %for.cond

for.cond:                                         ; preds = %for.inc, %invoke.cont4
  %5 = load ptr, ptr %__begin1, align 8
  %6 = load ptr, ptr %__end1, align 8
  %cmp = icmp ne ptr %5, %6
  br i1 %cmp, label %for.body, label %for.end

for.body:                                         ; preds = %for.cond
  %7 = load ptr, ptr %__begin1, align 8
  call void @llvm.memcpy.p0.p0.i64(ptr align 4 %l, ptr align 4 %7, i64 4, i1 false)
  %8 = load ptr, ptr %p.addr, align 8
  call void @llvm.memcpy.p0.p0.i64(ptr align 4 %agg.tmp, ptr align 4 %l, i64 4, i1 false)
  %9 = load ptr, ptr %p.addr, align 8
  %c_fixed_truth = getelementptr inbounds %"class.sat::lookahead", ptr %9, i32 0, i32 32
  %10 = load i32, ptr %c_fixed_truth, align 4
  %coerce.dive = getelementptr inbounds %"class.sat::literal", ptr %agg.tmp, i32 0, i32 0
  %11 = load i32, ptr %coerce.dive, align 4
  invoke void @_ZN3sat9lookahead4pushENS_7literalEj(ptr noundef nonnull align 8 dereferenceable(1160) %8, i32 %11, i32 noundef %10)
          to label %invoke.cont6 unwind label %lpad

invoke.cont6:                                     ; preds = %for.body
  br label %for.inc

for.inc:                                          ; preds = %invoke.cont6
  %12 = load ptr, ptr %__begin1, align 8
  %incdec.ptr = getelementptr inbounds %"class.sat::literal", ptr %12, i32 1
  store ptr %incdec.ptr, ptr %__begin1, align 8
  br label %for.cond

lpad:                                             ; preds = %for.body, %invoke.cont, %entry
  %13 = landingpad { ptr, i32 }
          cleanup
  %14 = extractvalue { ptr, i32 } %13, 0
  store ptr %14, ptr %exn.slot, align 8
  %15 = extractvalue { ptr, i32 } %13, 1
  store i32 %15, ptr %ehselector.slot, align 4
  call void @_ZN7svectorIN3sat7literalEjED2Ev(ptr noundef nonnull align 8 dereferenceable(8) %lits3) #3
  br label %eh.resume

for.end:                                          ; preds = %for.cond
  ret void

eh.resume:                                        ; preds = %lpad
  %exn = load ptr, ptr %exn.slot, align 8
  %sel = load i32, ptr %ehselector.slot, align 4
  %lpad.val = insertvalue { ptr, i32 } poison, ptr %exn, 0
  %lpad.val7 = insertvalue { ptr, i32 } %lpad.val, i32 %sel, 1
  resume { ptr, i32 } %lpad.val7
}