; Function Attrs: mustprogress uwtable
define hidden void @_ZN3sat9lookahead18scoped_assumptionsC2ERS0_RK7svectorINS_7literalEjE(ptr noundef nonnull align 8 dereferenceable(16) %this, ptr noundef nonnull align 8 dereferenceable(1160) %p, ptr nocapture noundef nonnull readonly align 8 dereferenceable(8) %lits) unnamed_addr #3 align 2 personality ptr @__gxx_personality_v0 {
entry:
  store ptr %p, ptr %this, align 8
  %lits3 = getelementptr inbounds i8, ptr %this, i64 8
  store ptr null, ptr %lits3, align 8
  %0 = load ptr, ptr %lits, align 8
  %tobool.not.i.i = icmp eq ptr %0, null
  br i1 %tobool.not.i.i, label %for.end, label %_ZNK6vectorIN3sat7literalELb0EjE8capacityEv.exit.i.i.i

_ZNK6vectorIN3sat7literalELb0EjE8capacityEv.exit.i.i.i: ; preds = %entry
  %arrayidx.i11.i.i.i = getelementptr inbounds i8, ptr %0, i64 -8
  %1 = load <2 x i32>, ptr %arrayidx.i11.i.i.i, align 4
  %2 = extractelement <2 x i32> %1, i64 0
  %conv.i.i.i = zext i32 %2 to i64
  %mul.i.i.i = shl nuw nsw i64 %conv.i.i.i, 2
  %add.i.i.i = add nuw nsw i64 %mul.i.i.i, 8
  %call3.i.i.i = tail call noalias noundef ptr @_ZN6memory8allocateEm(i64 noundef %add.i.i.i)
  store <2 x i32> %1, ptr %call3.i.i.i, align 4
  %incdec.ptr4.i.i.i = getelementptr i8, ptr %call3.i.i.i, i64 8
  store ptr %incdec.ptr4.i.i.i, ptr %lits3, align 8
  %3 = load ptr, ptr %lits, align 8
  %cmp.i.i.i.i.i = icmp eq ptr %3, null
  br i1 %cmp.i.i.i.i.i, label %for.end, label %_ZNK6vectorIN3sat7literalELb0EjE3endEv.exit.i.i.i

_ZNK6vectorIN3sat7literalELb0EjE3endEv.exit.i.i.i: ; preds = %_ZNK6vectorIN3sat7literalELb0EjE8capacityEv.exit.i.i.i
  %arrayidx.i.i.i.i.i = getelementptr inbounds i8, ptr %3, i64 -4
  %4 = load i32, ptr %arrayidx.i.i.i.i.i, align 4
  %5 = zext i32 %4 to i64
  %add.ptr.i.i.i.i = getelementptr inbounds %"class.sat::literal", ptr %3, i64 %5
  %cmp.not5.i.i.i.i.i.i = icmp eq i32 %4, 0
  br i1 %cmp.not5.i.i.i.i.i.i, label %_ZNK6vectorIN3sat7literalELb0EjE3endEv.exit, label %for.body.i.i.i.i.i.i

for.body.i.i.i.i.i.i:                             ; preds = %_ZNK6vectorIN3sat7literalELb0EjE3endEv.exit.i.i.i, %for.body.i.i.i.i.i.i
  %__cur.07.i.i.i.i.i.i = phi ptr [ %incdec.ptr1.i.i.i.i.i.i, %for.body.i.i.i.i.i.i ], [ %incdec.ptr4.i.i.i, %_ZNK6vectorIN3sat7literalELb0EjE3endEv.exit.i.i.i ]
  %__first.addr.06.i.i.i.i.i.i = phi ptr [ %incdec.ptr.i.i.i.i.i.i, %for.body.i.i.i.i.i.i ], [ %3, %_ZNK6vectorIN3sat7literalELb0EjE3endEv.exit.i.i.i ]
  %6 = load i32, ptr %__first.addr.06.i.i.i.i.i.i, align 4
  store i32 %6, ptr %__cur.07.i.i.i.i.i.i, align 4
  %incdec.ptr.i.i.i.i.i.i = getelementptr inbounds i8, ptr %__first.addr.06.i.i.i.i.i.i, i64 4
  %incdec.ptr1.i.i.i.i.i.i = getelementptr inbounds i8, ptr %__cur.07.i.i.i.i.i.i, i64 4
  %cmp.not.i.i.i.i.i.i = icmp eq ptr %incdec.ptr.i.i.i.i.i.i, %add.ptr.i.i.i.i
  br i1 %cmp.not.i.i.i.i.i.i, label %_ZNK6vectorIN3sat7literalELb0EjE3endEv.exit, label %for.body.i.i.i.i.i.i, !llvm.loop !4

_ZNK6vectorIN3sat7literalELb0EjE3endEv.exit:      ; preds = %for.body.i.i.i.i.i.i, %_ZNK6vectorIN3sat7literalELb0EjE3endEv.exit.i.i.i
  %7 = load i32, ptr %arrayidx.i.i.i.i.i, align 4
  %8 = zext i32 %7 to i64
  %add.ptr.i = getelementptr inbounds %"class.sat::literal", ptr %3, i64 %8
  %cmp.not8 = icmp eq i32 %7, 0
  br i1 %cmp.not8, label %for.end, label %for.body.lr.ph

for.body.lr.ph:                                   ; preds = %_ZNK6vectorIN3sat7literalELb0EjE3endEv.exit
  %c_fixed_truth = getelementptr inbounds i8, ptr %p, i64 892
  br label %for.body

for.body:                                         ; preds = %for.body.lr.ph, %for.inc
  %__begin1.09 = phi ptr [ %3, %for.body.lr.ph ], [ %incdec.ptr, %for.inc ]
  %l.sroa.0.0.copyload = load i32, ptr %__begin1.09, align 4
  %9 = load i32, ptr %c_fixed_truth, align 4
  invoke void @_ZN3sat9lookahead4pushENS_7literalEj(ptr noundef nonnull align 8 dereferenceable(1160) %p, i32 %l.sroa.0.0.copyload, i32 noundef %9)
          to label %for.inc unwind label %lpad

for.inc:                                          ; preds = %for.body
  %incdec.ptr = getelementptr inbounds i8, ptr %__begin1.09, i64 4
  %cmp.not = icmp eq ptr %incdec.ptr, %add.ptr.i
  br i1 %cmp.not, label %for.end, label %for.body

lpad:                                             ; preds = %for.body
  %10 = landingpad { ptr, i32 }
          cleanup
  tail call void @_ZN7svectorIN3sat7literalEjED2Ev(ptr noundef nonnull align 8 dereferenceable(8) %lits3) #27
  resume { ptr, i32 } %10

for.end:                                          ; preds = %for.inc, %entry, %_ZNK6vectorIN3sat7literalELb0EjE8capacityEv.exit.i.i.i, %_ZNK6vectorIN3sat7literalELb0EjE3endEv.exit
  ret void
}